; Function Attrs: nounwind uwtable
define hidden ptr @lxb_html_tokenizer_state_cr(ptr nocapture noundef %0, ptr noundef readonly %1, ptr noundef readnone %2) #1 {
  %4 = getelementptr inbounds i8, ptr %0, i64 136
  %5 = load ptr, ptr %4, align 8
  %6 = getelementptr inbounds i8, ptr %5, i64 1
  %7 = getelementptr inbounds i8, ptr %0, i64 144
  %8 = load ptr, ptr %7, align 8
  %9 = icmp ugt ptr %6, %8
  br i1 %9, label %10, label %24

10:                                               ; preds = %3
  %11 = getelementptr inbounds i8, ptr %0, i64 128
  %12 = load ptr, ptr %11, align 8
  %13 = ptrtoint ptr %12 to i64
  %14 = ptrtoint ptr %8 to i64
  %15 = add i64 %14, 4097
  %16 = sub i64 %15, %13
  %17 = tail call ptr @lexbor_realloc(ptr noundef %12, i64 noundef %16) #5
  store ptr %17, ptr %11, align 8
  %18 = icmp eq ptr %17, null
  br i1 %18, label %lxb_html_tokenizer_temp_append.exit, label %lxb_html_tokenizer_temp_realloc.exit.thread.i

lxb_html_tokenizer_temp_realloc.exit.thread.i:    ; preds = %10
  %19 = ptrtoint ptr %5 to i64
  %20 = sub i64 %19, %13
  %21 = getelementptr inbounds i8, ptr %17, i64 %20
  %22 = getelementptr inbounds i8, ptr %17, i64 %16
  store ptr %22, ptr %7, align 8
  br label %24

lxb_html_tokenizer_temp_append.exit:              ; preds = %10
  %23 = getelementptr inbounds i8, ptr %0, i64 232
  store i32 2, ptr %23, align 8
  br label %31

24:                                               ; preds = %3, %lxb_html_tokenizer_temp_realloc.exit.thread.i
  %25 = phi ptr [ %21, %lxb_html_tokenizer_temp_realloc.exit.thread.i ], [ %5, %3 ]
  store i8 10, ptr %25, align 1
  %26 = getelementptr inbounds i8, ptr %25, i64 1
  store ptr %26, ptr %4, align 8
  %27 = load i8, ptr %1, align 1
  %28 = icmp eq i8 %27, 10
  %spec.select.idx = zext i1 %28 to i64
  %spec.select = getelementptr inbounds i8, ptr %1, i64 %spec.select.idx
  %29 = getelementptr inbounds i8, ptr %0, i64 8
  %30 = load ptr, ptr %29, align 8
  store ptr %30, ptr %0, align 8
  br label %31

31:                                               ; preds = %lxb_html_tokenizer_temp_append.exit, %24
  %.0 = phi ptr [ %spec.select, %24 ], [ %2, %lxb_html_tokenizer_temp_append.exit ]
  ret ptr %.0
}